; Function Attrs: mustprogress uwtable
define noundef range(i32 -1, 1) i32 @_ZN3zmq9channel_t5xsendEPNS_5msg_tE(ptr noundef nonnull readonly align 8 captures(none) dereferenceable(1840) %0, ptr noundef nonnull %1) unnamed_addr #0 align 2 {
  %3 = tail call noundef zeroext i8 @_ZNK3zmq5msg_t5flagsEv(ptr noundef nonnull align 8 dereferenceable(64) %1)
  %4 = and i8 %3, 1
  %.not = icmp eq i8 %4, 0
  br i1 %.not, label %7, label %5

5:                                                ; preds = %2
  %6 = tail call ptr @__errno_location() #17
  store i32 22, ptr %6, align 4, !tbaa !90
  br label %25

7:                                                ; preds = %2
  %8 = getelementptr inbounds nuw i8, ptr %0, i64 1832
  %9 = load ptr, ptr %8, align 8, !tbaa !6
  %.not8 = icmp eq ptr %9, null
  br i1 %.not8, label %12, label %10

10:                                               ; preds = %7
  %11 = tail call noundef zeroext i1 @_ZN3zmq6pipe_t5writeEPKNS_5msg_tE(ptr noundef nonnull align 8 dereferenceable(328) %9, ptr noundef nonnull %1)
  br i1 %11, label %14, label %12

12:                                               ; preds = %10, %7
  %13 = tail call ptr @__errno_location() #17
  store i32 11, ptr %13, align 4, !tbaa !90
  br label %25

14:                                               ; preds = %10
  %15 = load ptr, ptr %8, align 8, !tbaa !6
  tail call void @_ZN3zmq6pipe_t5flushEv(ptr noundef nonnull align 8 dereferenceable(328) %15)
  %16 = tail call noundef i32 @_ZN3zmq5msg_t4initEv(ptr noundef nonnull align 8 dereferenceable(64) %1)
  %.not9 = icmp eq i32 %16, 0
  br i1 %.not9, label %25, label %17, !prof !86

17:                                               ; preds = %14
  %18 = tail call ptr @__errno_location() #17
  %19 = load i32, ptr %18, align 4, !tbaa !90
  %20 = tail call ptr @strerror(i32 noundef %19) #14
  %21 = load ptr, ptr @stderr, align 8, !tbaa !87
  %22 = tail call i32 (ptr, ptr, ...) @fprintf(ptr noundef %21, ptr noundef nonnull @.str.4, ptr noundef %20, ptr noundef nonnull @.str.2, i32 noundef 73) #13
  %23 = load ptr, ptr @stderr, align 8, !tbaa !87
  %24 = tail call i32 @fflush(ptr noundef %23)
  tail call void @_ZN3zmq9zmq_abortEPKc(ptr noundef %20)
  br label %25

25:                                               ; preds = %14, %17, %12, %5
  %.0 = phi i32 [ -1, %5 ], [ -1, %12 ], [ 0, %17 ], [ 0, %14 ]
  ret i32 %.0
}